target datalayout = "e-m:e-p270:32:32-p271:32:32-p272:64:64-i64:64-i128:128-f80:128-n8:16:32:64-S128"
target triple = "x86_64-pc-linux-gnu"

%struct.Ivy_FraigMan_t_ = type { ptr, i64, i64, ptr, ptr, i32, ptr, ptr, i32, ptr, ptr, %struct.Ivy_FraigList_t_, %struct.Ivy_FraigList_t_, i32, ptr, i32, ptr, ptr, i32, i32, i32, i32, i32, i32, i32, i32, i32, i32, i32, i32, i32, i64, i64, i64, i64, i64, i64, i64, i64, i64, i64 }
%struct.Ivy_FraigList_t_ = type { ptr, ptr, i32 }
%struct.Ivy_FraigSim_t_ = type { i32, ptr, ptr, ptr, [0 x i32] }

; Function Attrs: nounwind uwtable
define void @Ivy_NodeSimulateSim(ptr noundef %0, ptr noundef %1) #0 {
  %3 = alloca ptr, align 8
  %4 = alloca ptr, align 8
  %5 = alloca ptr, align 8
  %6 = alloca ptr, align 8
  %7 = alloca ptr, align 8
  %8 = alloca i32, align 4
  store ptr %0, ptr %3, align 8, !tbaa !60
  store ptr %1, ptr %4, align 8, !tbaa !102
  call void @llvm.lifetime.start.p0(i64 8, ptr %5) #12
  call void @llvm.lifetime.start.p0(i64 8, ptr %6) #12
  call void @llvm.lifetime.start.p0(i64 8, ptr %7) #12
  call void @llvm.lifetime.start.p0(i64 4, ptr %8) #12
  %9 = load ptr, ptr %4, align 8, !tbaa !102
  %10 = getelementptr inbounds nuw %struct.Ivy_FraigSim_t_, ptr %9, i32 0, i32 4
  %11 = getelementptr inbounds [0 x i32], ptr %10, i64 0, i64 0
  store ptr %11, ptr %5, align 8, !tbaa !139
  %12 = load ptr, ptr %4, align 8, !tbaa !102
  %13 = getelementptr inbounds nuw %struct.Ivy_FraigSim_t_, ptr %12, i32 0, i32 2
  %14 = load ptr, ptr %13, align 8, !tbaa !106
  %15 = getelementptr inbounds nuw %struct.Ivy_FraigSim_t_, ptr %14, i32 0, i32 4
  %16 = getelementptr inbounds [0 x i32], ptr %15, i64 0, i64 0
  store ptr %16, ptr %6, align 8, !tbaa !139
  %17 = load ptr, ptr %4, align 8, !tbaa !102
  %18 = getelementptr inbounds nuw %struct.Ivy_FraigSim_t_, ptr %17, i32 0, i32 3
  %19 = load ptr, ptr %18, align 8, !tbaa !107
  %20 = getelementptr inbounds nuw %struct.Ivy_FraigSim_t_, ptr %19, i32 0, i32 4
  %21 = getelementptr inbounds [0 x i32], ptr %20, i64 0, i64 0
  store ptr %21, ptr %7, align 8, !tbaa !139
  %22 = load ptr, ptr %4, align 8, !tbaa !102
  %23 = getelementptr inbounds nuw %struct.Ivy_FraigSim_t_, ptr %22, i32 0, i32 0
  %24 = load i32, ptr %23, align 8, !tbaa !108
  switch i32 %24, label %247 [
    i32 0, label %25
    i32 1, label %52
    i32 2, label %80
    i32 3, label %108
    i32 4, label %136
    i32 5, label %164
    i32 6, label %192
    i32 7, label %220
  ]

25:                                               ; preds = %2
  store i32 0, ptr %8, align 4, !tbaa !44
  br label %26

26:                                               ; preds = %48, %25
  %27 = load i32, ptr %8, align 4, !tbaa !44
  %28 = load ptr, ptr %3, align 8, !tbaa !60
  %29 = getelementptr inbounds nuw %struct.Ivy_FraigMan_t_, ptr %28, i32 0, i32 5
  %30 = load i32, ptr %29, align 8, !tbaa !100
  %31 = icmp slt i32 %27, %30
  br i1 %31, label %32, label %51

32:                                               ; preds = %26
  %33 = load ptr, ptr %6, align 8, !tbaa !139
  %34 = load i32, ptr %8, align 4, !tbaa !44
  %35 = sext i32 %34 to i64
  %36 = getelementptr inbounds i32, ptr %33, i64 %35
  %37 = load i32, ptr %36, align 4, !tbaa !44
  %38 = load ptr, ptr %7, align 8, !tbaa !139
  %39 = load i32, ptr %8, align 4, !tbaa !44
  %40 = sext i32 %39 to i64
  %41 = getelementptr inbounds i32, ptr %38, i64 %40
  %42 = load i32, ptr %41, align 4, !tbaa !44
  %43 = and i32 %37, %42
  %44 = load ptr, ptr %5, align 8, !tbaa !139
  %45 = load i32, ptr %8, align 4, !tbaa !44
  %46 = sext i32 %45 to i64
  %47 = getelementptr inbounds i32, ptr %44, i64 %46
  store i32 %43, ptr %47, align 4, !tbaa !44
  br label %48

48:                                               ; preds = %32
  %49 = load i32, ptr %8, align 4, !tbaa !44
  %50 = add nsw i32 %49, 1
  store i32 %50, ptr %8, align 4, !tbaa !44
  br label %26, !llvm.loop !145

51:                                               ; preds = %26
  br label %247

52:                                               ; preds = %2
  store i32 0, ptr %8, align 4, !tbaa !44
  br label %53

53:                                               ; preds = %76, %52
  %54 = load i32, ptr %8, align 4, !tbaa !44
  %55 = load ptr, ptr %3, align 8, !tbaa !60
  %56 = getelementptr inbounds nuw %struct.Ivy_FraigMan_t_, ptr %55, i32 0, i32 5
  %57 = load i32, ptr %56, align 8, !tbaa !100
  %58 = icmp slt i32 %54, %57
  br i1 %58, label %59, label %79

59:                                               ; preds = %53
  %60 = load ptr, ptr %6, align 8, !tbaa !139
  %61 = load i32, ptr %8, align 4, !tbaa !44
  %62 = sext i32 %61 to i64
  %63 = getelementptr inbounds i32, ptr %60, i64 %62
  %64 = load i32, ptr %63, align 4, !tbaa !44
  %65 = load ptr, ptr %7, align 8, !tbaa !139
  %66 = load i32, ptr %8, align 4, !tbaa !44
  %67 = sext i32 %66 to i64
  %68 = getelementptr inbounds i32, ptr %65, i64 %67
  %69 = load i32, ptr %68, align 4, !tbaa !44
  %70 = and i32 %64, %69
  %71 = xor i32 %70, -1
  %72 = load ptr, ptr %5, align 8, !tbaa !139
  %73 = load i32, ptr %8, align 4, !tbaa !44
  %74 = sext i32 %73 to i64
  %75 = getelementptr inbounds i32, ptr %72, i64 %74
  store i32 %71, ptr %75, align 4, !tbaa !44
  br label %76

76:                                               ; preds = %59
  %77 = load i32, ptr %8, align 4, !tbaa !44
  %78 = add nsw i32 %77, 1
  store i32 %78, ptr %8, align 4, !tbaa !44
  br label %53, !llvm.loop !146

79:                                               ; preds = %53
  br label %247

80:                                               ; preds = %2
  store i32 0, ptr %8, align 4, !tbaa !44
  br label %81

81:                                               ; preds = %104, %80
  %82 = load i32, ptr %8, align 4, !tbaa !44
  %83 = load ptr, ptr %3, align 8, !tbaa !60
  %84 = getelementptr inbounds nuw %struct.Ivy_FraigMan_t_, ptr %83, i32 0, i32 5
  %85 = load i32, ptr %84, align 8, !tbaa !100
  %86 = icmp slt i32 %82, %85
  br i1 %86, label %87, label %107

87:                                               ; preds = %81
  %88 = load ptr, ptr %6, align 8, !tbaa !139
  %89 = load i32, ptr %8, align 4, !tbaa !44
  %90 = sext i32 %89 to i64
  %91 = getelementptr inbounds i32, ptr %88, i64 %90
  %92 = load i32, ptr %91, align 4, !tbaa !44
  %93 = load ptr, ptr %7, align 8, !tbaa !139
  %94 = load i32, ptr %8, align 4, !tbaa !44
  %95 = sext i32 %94 to i64
  %96 = getelementptr inbounds i32, ptr %93, i64 %95
  %97 = load i32, ptr %96, align 4, !tbaa !44
  %98 = xor i32 %97, -1
  %99 = and i32 %92, %98
  %100 = load ptr, ptr %5, align 8, !tbaa !139
  %101 = load i32, ptr %8, align 4, !tbaa !44
  %102 = sext i32 %101 to i64
  %103 = getelementptr inbounds i32, ptr %100, i64 %102
  store i32 %99, ptr %103, align 4, !tbaa !44
  br label %104

104:                                              ; preds = %87
  %105 = load i32, ptr %8, align 4, !tbaa !44
  %106 = add nsw i32 %105, 1
  store i32 %106, ptr %8, align 4, !tbaa !44
  br label %81, !llvm.loop !147

107:                                              ; preds = %81
  br label %247

108:                                              ; preds = %2
  store i32 0, ptr %8, align 4, !tbaa !44
  br label %109

109:                                              ; preds = %132, %108
  %110 = load i32, ptr %8, align 4, !tbaa !44
  %111 = load ptr, ptr %3, align 8, !tbaa !60
  %112 = getelementptr inbounds nuw %struct.Ivy_FraigMan_t_, ptr %111, i32 0, i32 5
  %113 = load i32, ptr %112, align 8, !tbaa !100
  %114 = icmp slt i32 %110, %113
  br i1 %114, label %115, label %135

115:                                              ; preds = %109
  %116 = load ptr, ptr %6, align 8, !tbaa !139
  %117 = load i32, ptr %8, align 4, !tbaa !44
  %118 = sext i32 %117 to i64
  %119 = getelementptr inbounds i32, ptr %116, i64 %118
  %120 = load i32, ptr %119, align 4, !tbaa !44
  %121 = xor i32 %120, -1
  %122 = load ptr, ptr %7, align 8, !tbaa !139
  %123 = load i32, ptr %8, align 4, !tbaa !44
  %124 = sext i32 %123 to i64
  %125 = getelementptr inbounds i32, ptr %122, i64 %124
  %126 = load i32, ptr %125, align 4, !tbaa !44
  %127 = or i32 %121, %126
  %128 = load ptr, ptr %5, align 8, !tbaa !139
  %129 = load i32, ptr %8, align 4, !tbaa !44
  %130 = sext i32 %129 to i64
  %131 = getelementptr inbounds i32, ptr %128, i64 %130
  store i32 %127, ptr %131, align 4, !tbaa !44
  br label %132

132:                                              ; preds = %115
  %133 = load i32, ptr %8, align 4, !tbaa !44
  %134 = add nsw i32 %133, 1
  store i32 %134, ptr %8, align 4, !tbaa !44
  br label %109, !llvm.loop !148

135:                                              ; preds = %109
  br label %247

136:                                              ; preds = %2
  store i32 0, ptr %8, align 4, !tbaa !44
  br label %137

137:                                              ; preds = %160, %136
  %138 = load i32, ptr %8, align 4, !tbaa !44
  %139 = load ptr, ptr %3, align 8, !tbaa !60
  %140 = getelementptr inbounds nuw %struct.Ivy_FraigMan_t_, ptr %139, i32 0, i32 5
  %141 = load i32, ptr %140, align 8, !tbaa !100
  %142 = icmp slt i32 %138, %141
  br i1 %142, label %143, label %163

143:                                              ; preds = %137
  %144 = load ptr, ptr %6, align 8, !tbaa !139
  %145 = load i32, ptr %8, align 4, !tbaa !44
  %146 = sext i32 %145 to i64
  %147 = getelementptr inbounds i32, ptr %144, i64 %146
  %148 = load i32, ptr %147, align 4, !tbaa !44
  %149 = xor i32 %148, -1
  %150 = load ptr, ptr %7, align 8, !tbaa !139
  %151 = load i32, ptr %8, align 4, !tbaa !44
  %152 = sext i32 %151 to i64
  %153 = getelementptr inbounds i32, ptr %150, i64 %152
  %154 = load i32, ptr %153, align 4, !tbaa !44
  %155 = and i32 %149, %154
  %156 = load ptr, ptr %5, align 8, !tbaa !139
  %157 = load i32, ptr %8, align 4, !tbaa !44
  %158 = sext i32 %157 to i64
  %159 = getelementptr inbounds i32, ptr %156, i64 %158
  store i32 %155, ptr %159, align 4, !tbaa !44
  br label %160

160:                                              ; preds = %143
  %161 = load i32, ptr %8, align 4, !tbaa !44
  %162 = add nsw i32 %161, 1
  store i32 %162, ptr %8, align 4, !tbaa !44
  br label %137, !llvm.loop !149

163:                                              ; preds = %137
  br label %247

164:                                              ; preds = %2
  store i32 0, ptr %8, align 4, !tbaa !44
  br label %165

165:                                              ; preds = %188, %164
  %166 = load i32, ptr %8, align 4, !tbaa !44
  %167 = load ptr, ptr %3, align 8, !tbaa !60
  %168 = getelementptr inbounds nuw %struct.Ivy_FraigMan_t_, ptr %167, i32 0, i32 5
  %169 = load i32, ptr %168, align 8, !tbaa !100
  %170 = icmp slt i32 %166, %169
  br i1 %170, label %171, label %191

171:                                              ; preds = %165
  %172 = load ptr, ptr %6, align 8, !tbaa !139
  %173 = load i32, ptr %8, align 4, !tbaa !44
  %174 = sext i32 %173 to i64
  %175 = getelementptr inbounds i32, ptr %172, i64 %174
  %176 = load i32, ptr %175, align 4, !tbaa !44
  %177 = load ptr, ptr %7, align 8, !tbaa !139
  %178 = load i32, ptr %8, align 4, !tbaa !44
  %179 = sext i32 %178 to i64
  %180 = getelementptr inbounds i32, ptr %177, i64 %179
  %181 = load i32, ptr %180, align 4, !tbaa !44
  %182 = xor i32 %181, -1
  %183 = or i32 %176, %182
  %184 = load ptr, ptr %5, align 8, !tbaa !139
  %185 = load i32, ptr %8, align 4, !tbaa !44
  %186 = sext i32 %185 to i64
  %187 = getelementptr inbounds i32, ptr %184, i64 %186
  store i32 %183, ptr %187, align 4, !tbaa !44
  br label %188

188:                                              ; preds = %171
  %189 = load i32, ptr %8, align 4, !tbaa !44
  %190 = add nsw i32 %189, 1
  store i32 %190, ptr %8, align 4, !tbaa !44
  br label %165, !llvm.loop !150

191:                                              ; preds = %165
  br label %247

192:                                              ; preds = %2
  store i32 0, ptr %8, align 4, !tbaa !44
  br label %193

193:                                              ; preds = %216, %192
  %194 = load i32, ptr %8, align 4, !tbaa !44
  %195 = load ptr, ptr %3, align 8, !tbaa !60
  %196 = getelementptr inbounds nuw %struct.Ivy_FraigMan_t_, ptr %195, i32 0, i32 5
  %197 = load i32, ptr %196, align 8, !tbaa !100
  %198 = icmp slt i32 %194, %197
  br i1 %198, label %199, label %219

199:                                              ; preds = %193
  %200 = load ptr, ptr %6, align 8, !tbaa !139
  %201 = load i32, ptr %8, align 4, !tbaa !44
  %202 = sext i32 %201 to i64
  %203 = getelementptr inbounds i32, ptr %200, i64 %202
  %204 = load i32, ptr %203, align 4, !tbaa !44
  %205 = load ptr, ptr %7, align 8, !tbaa !139
  %206 = load i32, ptr %8, align 4, !tbaa !44
  %207 = sext i32 %206 to i64
  %208 = getelementptr inbounds i32, ptr %205, i64 %207
  %209 = load i32, ptr %208, align 4, !tbaa !44
  %210 = or i32 %204, %209
  %211 = xor i32 %210, -1
  %212 = load ptr, ptr %5, align 8, !tbaa !139
  %213 = load i32, ptr %8, align 4, !tbaa !44
  %214 = sext i32 %213 to i64
  %215 = getelementptr inbounds i32, ptr %212, i64 %214
  store i32 %211, ptr %215, align 4, !tbaa !44
  br label %216

216:                                              ; preds = %199
  %217 = load i32, ptr %8, align 4, !tbaa !44
  %218 = add nsw i32 %217, 1
  store i32 %218, ptr %8, align 4, !tbaa !44
  br label %193, !llvm.loop !151

219:                                              ; preds = %193
  br label %247

220:                                              ; preds = %2
  store i32 0, ptr %8, align 4, !tbaa !44
  br label %221

221:                                              ; preds = %243, %220
  %222 = load i32, ptr %8, align 4, !tbaa !44
  %223 = load ptr, ptr %3, align 8, !tbaa !60
  %224 = getelementptr inbounds nuw %struct.Ivy_FraigMan_t_, ptr %223, i32 0, i32 5
  %225 = load i32, ptr %224, align 8, !tbaa !100
  %226 = icmp slt i32 %222, %225
  br i1 %226, label %227, label %246

227:                                              ; preds = %221
  %228 = load ptr, ptr %6, align 8, !tbaa !139
  %229 = load i32, ptr %8, align 4, !tbaa !44
  %230 = sext i32 %229 to i64
  %231 = getelementptr inbounds i32, ptr %228, i64 %230
  %232 = load i32, ptr %231, align 4, !tbaa !44
  %233 = load ptr, ptr %7, align 8, !tbaa !139
  %234 = load i32, ptr %8, align 4, !tbaa !44
  %235 = sext i32 %234 to i64
  %236 = getelementptr inbounds i32, ptr %233, i64 %235
  %237 = load i32, ptr %236, align 4, !tbaa !44
  %238 = or i32 %232, %237
  %239 = load ptr, ptr %5, align 8, !tbaa !139
  %240 = load i32, ptr %8, align 4, !tbaa !44
  %241 = sext i32 %240 to i64
  %242 = getelementptr inbounds i32, ptr %239, i64 %241
  store i32 %238, ptr %242, align 4, !tbaa !44
  br label %243

243:                                              ; preds = %227
  %244 = load i32, ptr %8, align 4, !tbaa !44
  %245 = add nsw i32 %244, 1
  store i32 %245, ptr %8, align 4, !tbaa !44
  br label %221, !llvm.loop !152

246:                                              ; preds = %221
  br label %247

247:                                              ; preds = %2, %246, %219, %191, %163, %135, %107, %79, %51
  call void @llvm.lifetime.end.p0(i64 4, ptr %8) #12
  call void @llvm.lifetime.end.p0(i64 8, ptr %7) #12
  call void @llvm.lifetime.end.p0(i64 8, ptr %6) #12
  call void @llvm.lifetime.end.p0(i64 8, ptr %5) #12
  ret void
}