; Function Attrs: nofree norecurse nosync nounwind memory(read, argmem: readwrite, inaccessiblemem: none) uwtable
define void @Ivy_NodeSimulateSim(ptr noundef readonly captures(none) %0, ptr noundef captures(none) %1) local_unnamed_addr #11 {
  %3 = getelementptr inbounds nuw i8, ptr %1, i64 32
  %4 = getelementptr inbounds nuw i8, ptr %1, i64 16
  %5 = load ptr, ptr %4, align 8, !tbaa !104
  %6 = getelementptr inbounds nuw i8, ptr %5, i64 32
  %7 = getelementptr inbounds nuw i8, ptr %1, i64 24
  %8 = load ptr, ptr %7, align 8, !tbaa !105
  %9 = getelementptr inbounds nuw i8, ptr %8, i64 32
  %10 = load i32, ptr %1, align 8, !tbaa !106
  switch i32 %10, label %.loopexit [
    i32 0, label %.preheader
    i32 1, label %.preheader75
    i32 2, label %.preheader77
    i32 3, label %.preheader79
    i32 4, label %.preheader81
    i32 5, label %.preheader83
    i32 6, label %.preheader85
    i32 7, label %.preheader87
  ]

.preheader87:                                     ; preds = %2
  %11 = getelementptr inbounds nuw i8, ptr %0, i64 40
  %12 = load i32, ptr %11, align 8, !tbaa !96
  %13 = icmp sgt i32 %12, 0
  br i1 %13, label %.lr.ph, label %.loopexit

.preheader85:                                     ; preds = %2
  %14 = getelementptr inbounds nuw i8, ptr %0, i64 40
  %15 = load i32, ptr %14, align 8, !tbaa !96
  %16 = icmp sgt i32 %15, 0
  br i1 %16, label %.lr.ph91, label %.loopexit

.preheader83:                                     ; preds = %2
  %17 = getelementptr inbounds nuw i8, ptr %0, i64 40
  %18 = load i32, ptr %17, align 8, !tbaa !96
  %19 = icmp sgt i32 %18, 0
  br i1 %19, label %.lr.ph93, label %.loopexit

.preheader81:                                     ; preds = %2
  %20 = getelementptr inbounds nuw i8, ptr %0, i64 40
  %21 = load i32, ptr %20, align 8, !tbaa !96
  %22 = icmp sgt i32 %21, 0
  br i1 %22, label %.lr.ph95, label %.loopexit

.preheader79:                                     ; preds = %2
  %23 = getelementptr inbounds nuw i8, ptr %0, i64 40
  %24 = load i32, ptr %23, align 8, !tbaa !96
  %25 = icmp sgt i32 %24, 0
  br i1 %25, label %.lr.ph97, label %.loopexit

.preheader77:                                     ; preds = %2
  %26 = getelementptr inbounds nuw i8, ptr %0, i64 40
  %27 = load i32, ptr %26, align 8, !tbaa !96
  %28 = icmp sgt i32 %27, 0
  br i1 %28, label %.lr.ph99, label %.loopexit

.preheader75:                                     ; preds = %2
  %29 = getelementptr inbounds nuw i8, ptr %0, i64 40
  %30 = load i32, ptr %29, align 8, !tbaa !96
  %31 = icmp sgt i32 %30, 0
  br i1 %31, label %.lr.ph101, label %.loopexit

.preheader:                                       ; preds = %2
  %32 = getelementptr inbounds nuw i8, ptr %0, i64 40
  %33 = load i32, ptr %32, align 8, !tbaa !96
  %34 = icmp sgt i32 %33, 0
  br i1 %34, label %.lr.ph103, label %.loopexit

.lr.ph103:                                        ; preds = %.preheader, %.lr.ph103
  %indvars.iv130 = phi i64 [ %indvars.iv.next131, %.lr.ph103 ], [ 0, %.preheader ]
  %35 = getelementptr inbounds nuw i32, ptr %6, i64 %indvars.iv130
  %36 = load i32, ptr %35, align 4, !tbaa !38
  %37 = getelementptr inbounds nuw i32, ptr %9, i64 %indvars.iv130
  %38 = load i32, ptr %37, align 4, !tbaa !38
  %39 = and i32 %38, %36
  %40 = getelementptr inbounds nuw i32, ptr %3, i64 %indvars.iv130
  store i32 %39, ptr %40, align 4, !tbaa !38
  %indvars.iv.next131 = add nuw nsw i64 %indvars.iv130, 1
  %41 = load i32, ptr %32, align 8, !tbaa !96
  %42 = sext i32 %41 to i64
  %43 = icmp slt i64 %indvars.iv.next131, %42
  br i1 %43, label %.lr.ph103, label %.loopexit, !llvm.loop !160

.lr.ph101:                                        ; preds = %.preheader75, %.lr.ph101
  %indvars.iv127 = phi i64 [ %indvars.iv.next128, %.lr.ph101 ], [ 0, %.preheader75 ]
  %44 = getelementptr inbounds nuw i32, ptr %6, i64 %indvars.iv127
  %45 = load i32, ptr %44, align 4, !tbaa !38
  %46 = getelementptr inbounds nuw i32, ptr %9, i64 %indvars.iv127
  %47 = load i32, ptr %46, align 4, !tbaa !38
  %48 = and i32 %47, %45
  %49 = xor i32 %48, -1
  %50 = getelementptr inbounds nuw i32, ptr %3, i64 %indvars.iv127
  store i32 %49, ptr %50, align 4, !tbaa !38
  %indvars.iv.next128 = add nuw nsw i64 %indvars.iv127, 1
  %51 = load i32, ptr %29, align 8, !tbaa !96
  %52 = sext i32 %51 to i64
  %53 = icmp slt i64 %indvars.iv.next128, %52
  br i1 %53, label %.lr.ph101, label %.loopexit, !llvm.loop !161

.lr.ph99:                                         ; preds = %.preheader77, %.lr.ph99
  %indvars.iv124 = phi i64 [ %indvars.iv.next125, %.lr.ph99 ], [ 0, %.preheader77 ]
  %54 = getelementptr inbounds nuw i32, ptr %6, i64 %indvars.iv124
  %55 = load i32, ptr %54, align 4, !tbaa !38
  %56 = getelementptr inbounds nuw i32, ptr %9, i64 %indvars.iv124
  %57 = load i32, ptr %56, align 4, !tbaa !38
  %58 = xor i32 %57, -1
  %59 = and i32 %55, %58
  %60 = getelementptr inbounds nuw i32, ptr %3, i64 %indvars.iv124
  store i32 %59, ptr %60, align 4, !tbaa !38
  %indvars.iv.next125 = add nuw nsw i64 %indvars.iv124, 1
  %61 = load i32, ptr %26, align 8, !tbaa !96
  %62 = sext i32 %61 to i64
  %63 = icmp slt i64 %indvars.iv.next125, %62
  br i1 %63, label %.lr.ph99, label %.loopexit, !llvm.loop !162

.lr.ph97:                                         ; preds = %.preheader79, %.lr.ph97
  %indvars.iv121 = phi i64 [ %indvars.iv.next122, %.lr.ph97 ], [ 0, %.preheader79 ]
  %64 = getelementptr inbounds nuw i32, ptr %6, i64 %indvars.iv121
  %65 = load i32, ptr %64, align 4, !tbaa !38
  %66 = xor i32 %65, -1
  %67 = getelementptr inbounds nuw i32, ptr %9, i64 %indvars.iv121
  %68 = load i32, ptr %67, align 4, !tbaa !38
  %69 = or i32 %68, %66
  %70 = getelementptr inbounds nuw i32, ptr %3, i64 %indvars.iv121
  store i32 %69, ptr %70, align 4, !tbaa !38
  %indvars.iv.next122 = add nuw nsw i64 %indvars.iv121, 1
  %71 = load i32, ptr %23, align 8, !tbaa !96
  %72 = sext i32 %71 to i64
  %73 = icmp slt i64 %indvars.iv.next122, %72
  br i1 %73, label %.lr.ph97, label %.loopexit, !llvm.loop !163

.lr.ph95:                                         ; preds = %.preheader81, %.lr.ph95
  %indvars.iv118 = phi i64 [ %indvars.iv.next119, %.lr.ph95 ], [ 0, %.preheader81 ]
  %74 = getelementptr inbounds nuw i32, ptr %6, i64 %indvars.iv118
  %75 = load i32, ptr %74, align 4, !tbaa !38
  %76 = xor i32 %75, -1
  %77 = getelementptr inbounds nuw i32, ptr %9, i64 %indvars.iv118
  %78 = load i32, ptr %77, align 4, !tbaa !38
  %79 = and i32 %78, %76
  %80 = getelementptr inbounds nuw i32, ptr %3, i64 %indvars.iv118
  store i32 %79, ptr %80, align 4, !tbaa !38
  %indvars.iv.next119 = add nuw nsw i64 %indvars.iv118, 1
  %81 = load i32, ptr %20, align 8, !tbaa !96
  %82 = sext i32 %81 to i64
  %83 = icmp slt i64 %indvars.iv.next119, %82
  br i1 %83, label %.lr.ph95, label %.loopexit, !llvm.loop !164

.lr.ph93:                                         ; preds = %.preheader83, %.lr.ph93
  %indvars.iv115 = phi i64 [ %indvars.iv.next116, %.lr.ph93 ], [ 0, %.preheader83 ]
  %84 = getelementptr inbounds nuw i32, ptr %6, i64 %indvars.iv115
  %85 = load i32, ptr %84, align 4, !tbaa !38
  %86 = getelementptr inbounds nuw i32, ptr %9, i64 %indvars.iv115
  %87 = load i32, ptr %86, align 4, !tbaa !38
  %88 = xor i32 %87, -1
  %89 = or i32 %85, %88
  %90 = getelementptr inbounds nuw i32, ptr %3, i64 %indvars.iv115
  store i32 %89, ptr %90, align 4, !tbaa !38
  %indvars.iv.next116 = add nuw nsw i64 %indvars.iv115, 1
  %91 = load i32, ptr %17, align 8, !tbaa !96
  %92 = sext i32 %91 to i64
  %93 = icmp slt i64 %indvars.iv.next116, %92
  br i1 %93, label %.lr.ph93, label %.loopexit, !llvm.loop !165

.lr.ph91:                                         ; preds = %.preheader85, %.lr.ph91
  %indvars.iv112 = phi i64 [ %indvars.iv.next113, %.lr.ph91 ], [ 0, %.preheader85 ]
  %94 = getelementptr inbounds nuw i32, ptr %6, i64 %indvars.iv112
  %95 = load i32, ptr %94, align 4, !tbaa !38
  %96 = getelementptr inbounds nuw i32, ptr %9, i64 %indvars.iv112
  %97 = load i32, ptr %96, align 4, !tbaa !38
  %98 = or i32 %97, %95
  %99 = xor i32 %98, -1
  %100 = getelementptr inbounds nuw i32, ptr %3, i64 %indvars.iv112
  store i32 %99, ptr %100, align 4, !tbaa !38
  %indvars.iv.next113 = add nuw nsw i64 %indvars.iv112, 1
  %101 = load i32, ptr %14, align 8, !tbaa !96
  %102 = sext i32 %101 to i64
  %103 = icmp slt i64 %indvars.iv.next113, %102
  br i1 %103, label %.lr.ph91, label %.loopexit, !llvm.loop !166

.lr.ph:                                           ; preds = %.preheader87, %.lr.ph
  %indvars.iv = phi i64 [ %indvars.iv.next, %.lr.ph ], [ 0, %.preheader87 ]
  %104 = getelementptr inbounds nuw i32, ptr %6, i64 %indvars.iv
  %105 = load i32, ptr %104, align 4, !tbaa !38
  %106 = getelementptr inbounds nuw i32, ptr %9, i64 %indvars.iv
  %107 = load i32, ptr %106, align 4, !tbaa !38
  %108 = or i32 %107, %105
  %109 = getelementptr inbounds nuw i32, ptr %3, i64 %indvars.iv
  store i32 %108, ptr %109, align 4, !tbaa !38
  %indvars.iv.next = add nuw nsw i64 %indvars.iv, 1
  %110 = load i32, ptr %11, align 8, !tbaa !96
  %111 = sext i32 %110 to i64
  %112 = icmp slt i64 %indvars.iv.next, %111
  br i1 %112, label %.lr.ph, label %.loopexit, !llvm.loop !167

.loopexit:                                        ; preds = %.lr.ph, %.lr.ph91, %.lr.ph93, %.lr.ph95, %.lr.ph97, %.lr.ph99, %.lr.ph101, %.lr.ph103, %.preheader87, %.preheader85, %.preheader83, %.preheader81, %.preheader79, %.preheader77, %.preheader75, %.preheader, %2
  ret void
}